; Function Attrs: nounwind uwtable
define internal range(i32 0, 32769) i32 @dct_max8x8_c(ptr noundef readonly captures(none) %0, ptr noundef %1, ptr noundef %2, i64 noundef %3, i32 %4) #7 {
  %6 = alloca [64 x i16], align 16
  call void @llvm.lifetime.start.p0(i64 128, ptr nonnull %6) #12
  %7 = getelementptr inbounds nuw i8, ptr %0, i64 5016
  %8 = load ptr, ptr %7, align 8, !tbaa !35
  call void %8(ptr noundef nonnull %6, ptr noundef %1, ptr noundef %2, i64 noundef %3) #12
  %9 = getelementptr inbounds nuw i8, ptr %0, i64 4904
  %10 = load ptr, ptr %9, align 8, !tbaa !71
  call void %10(ptr noundef nonnull %6) #12
  br label %11

11:                                               ; preds = %5, %11
  %indvars.iv = phi i64 [ 0, %5 ], [ %indvars.iv.next, %11 ]
  %.02327 = phi i32 [ 0, %5 ], [ %spec.select, %11 ]
  %12 = getelementptr inbounds nuw i16, ptr %6, i64 %indvars.iv
  %13 = load i16, ptr %12, align 2, !tbaa !18
  %14 = call i16 @llvm.abs.i16(i16 %13, i1 false)
  %15 = zext i16 %14 to i32
  %spec.select = call i32 @llvm.umax.i32(i32 %.02327, i32 %15)
  %indvars.iv.next = add nuw nsw i64 %indvars.iv, 1
  %exitcond.not = icmp eq i64 %indvars.iv.next, 64
  br i1 %exitcond.not, label %16, label %11, !llvm.loop !73

16:                                               ; preds = %11
  call void @llvm.lifetime.end.p0(i64 128, ptr nonnull %6) #12
  ret i32 %spec.select
}